target datalayout = "e-m:e-p270:32:32-p271:32:32-p272:64:64-i64:64-i128:128-f80:128-n8:16:32:64-S128"
target triple = "x86_64-pc-linux-gnu"

%struct.Qureg = type { i32, i32, i32, i64, i64, i32, i32, %struct.ComplexArray, %struct.ComplexArray, %struct.ComplexArray, ptr, ptr, ptr, ptr, ptr, ptr }
%struct.ComplexArray = type { ptr, ptr }
%struct.QASMLogger = type { ptr, i32, i32, i32 }

@.str.27 = private unnamed_addr constant [80 x i8] c"Restoring the discarded global phase of the previous multicontrolled phase gate\00", align 1

; Function Attrs: nounwind uwtable
define void @qasm_recordMultiControlledParamGate(ptr noundef byval(%struct.Qureg) align 8 %0, i32 noundef %1, ptr noundef %2, i32 noundef %3, i32 noundef %4, double noundef %5) #0 {
  %7 = alloca i32, align 4
  %8 = alloca ptr, align 8
  %9 = alloca i32, align 4
  %10 = alloca i32, align 4
  %11 = alloca double, align 8
  %12 = alloca [1 x double], align 8
  %13 = alloca [1 x double], align 8
  store i32 %1, ptr %7, align 4, !tbaa !25
  store ptr %2, ptr %8, align 8, !tbaa !26
  store i32 %3, ptr %9, align 4, !tbaa !25
  store i32 %4, ptr %10, align 4, !tbaa !25
  store double %5, ptr %11, align 8, !tbaa !29
  %14 = getelementptr inbounds nuw %struct.Qureg, ptr %0, i32 0, i32 15
  %15 = load ptr, ptr %14, align 8, !tbaa !10
  %16 = getelementptr inbounds nuw %struct.QASMLogger, ptr %15, i32 0, i32 3
  %17 = load i32, ptr %16, align 8, !tbaa !17
  %18 = icmp ne i32 %17, 0
  br i1 %18, label %20, label %19

19:                                               ; preds = %6
  br label %35

20:                                               ; preds = %6
  call void @llvm.lifetime.start.p0(i64 8, ptr %12) #7
  %21 = load double, ptr %11, align 8, !tbaa !29
  store double %21, ptr %12, align 8, !tbaa !29
  %22 = load i32, ptr %7, align 4, !tbaa !25
  %23 = load ptr, ptr %8, align 8, !tbaa !26
  %24 = load i32, ptr %9, align 4, !tbaa !25
  %25 = load i32, ptr %10, align 4, !tbaa !25
  %26 = getelementptr inbounds [1 x double], ptr %12, i64 0, i64 0
  call void @addGateToQASM(ptr noundef byval(%struct.Qureg) align 8 %0, i32 noundef %22, ptr noundef %23, i32 noundef %24, i32 noundef %25, ptr noundef %26, i32 noundef 1)
  %27 = load i32, ptr %7, align 4, !tbaa !25
  %28 = icmp eq i32 %27, 11
  br i1 %28, label %29, label %34

29:                                               ; preds = %20
  call void (ptr, ptr, ...) @qasm_recordComment(ptr noundef byval(%struct.Qureg) align 8 %0, ptr noundef @.str.27)
  call void @llvm.lifetime.start.p0(i64 8, ptr %13) #7
  %30 = load double, ptr %11, align 8, !tbaa !29
  %31 = fdiv double %30, 2.000000e+00
  store double %31, ptr %13, align 8, !tbaa !29
  %32 = load i32, ptr %10, align 4, !tbaa !25
  %33 = getelementptr inbounds [1 x double], ptr %13, i64 0, i64 0
  call void @addGateToQASM(ptr noundef byval(%struct.Qureg) align 8 %0, i32 noundef 8, ptr noundef null, i32 noundef 0, i32 noundef %32, ptr noundef %33, i32 noundef 1)
  call void @llvm.lifetime.end.p0(i64 8, ptr %13) #7
  br label %34

34:                                               ; preds = %29, %20
  call void @llvm.lifetime.end.p0(i64 8, ptr %12) #7
  br label %35

35:                                               ; preds = %34, %19
  ret void
}