; Function Attrs: nounwind uwtable
define void @qasm_recordMultiControlledParamGate(ptr noundef readonly byval(%struct.Qureg) align 8 captures(none) %0, i32 noundef %1, ptr noundef readonly captures(none) %2, i32 noundef %3, i32 noundef %4, double noundef %5) local_unnamed_addr #0 {
  %7 = alloca [1 x double], align 8
  %8 = alloca [1 x double], align 8
  %9 = getelementptr inbounds nuw i8, ptr %0, i64 128
  %10 = load ptr, ptr %9, align 8, !tbaa !4
  %11 = getelementptr inbounds nuw i8, ptr %10, i64 16
  %12 = load i32, ptr %11, align 8, !tbaa !14
  %.not = icmp eq i32 %12, 0
  br i1 %.not, label %18, label %13

13:                                               ; preds = %6
  call void @llvm.lifetime.start.p0(i64 8, ptr nonnull %7) #16
  store double %5, ptr %7, align 8, !tbaa !22
  call void @addGateToQASM(ptr noundef nonnull byval(%struct.Qureg) align 8 %0, i32 noundef %1, ptr noundef %2, i32 noundef %3, i32 noundef %4, ptr noundef nonnull %7, i32 noundef 1)
  %14 = icmp eq i32 %1, 11
  br i1 %14, label %15, label %17

15:                                               ; preds = %13
  tail call void (ptr, ptr, ...) @qasm_recordComment(ptr noundef nonnull byval(%struct.Qureg) align 8 %0, ptr noundef nonnull @.str.27)
  call void @llvm.lifetime.start.p0(i64 8, ptr nonnull %8) #16
  %16 = fmul double %5, 5.000000e-01
  store double %16, ptr %8, align 8, !tbaa !22
  call void @addGateToQASM(ptr noundef nonnull byval(%struct.Qureg) align 8 %0, i32 noundef 8, ptr noundef null, i32 noundef 0, i32 noundef %4, ptr noundef nonnull %8, i32 noundef 1)
  call void @llvm.lifetime.end.p0(i64 8, ptr nonnull %8) #16
  br label %17

17:                                               ; preds = %15, %13
  call void @llvm.lifetime.end.p0(i64 8, ptr nonnull %7) #16
  br label %18

18:                                               ; preds = %6, %17
  ret void
}